; Function Attrs: nounwind uwtable
define internal fastcc ptr @_init_l_Lean_PrettyPrinter_Formatter_charLit_formatter___regBuiltin_Lean_PrettyPrinter_Formatter_charLit_formatter__1___closed__1() unnamed_addr #0 {
  %1 = load ptr, ptr @l_Lean_Parser_initFn____x40_Lean_Parser___hyg_7____closed__3, align 8, !tbaa !4
  %2 = load ptr, ptr @l_Lean_PrettyPrinter_Parenthesizer_ident_parenthesizer___regBuiltin_Lean_PrettyPrinter_Parenthesizer_ident_parenthesizer__1___closed__1, align 8, !tbaa !4
  %3 = load ptr, ptr @l_Lean_PrettyPrinter_Formatter_ident_formatter___regBuiltin_Lean_PrettyPrinter_Formatter_ident_formatter__1___closed__1, align 8, !tbaa !4
  %4 = load ptr, ptr @l_Lean_Parser_initFn____x40_Lean_Parser___hyg_7____closed__67, align 8, !tbaa !4
  %5 = load ptr, ptr @l_Lean_PrettyPrinter_Formatter_ident_formatter___regBuiltin_Lean_PrettyPrinter_Formatter_ident_formatter__1___closed__2, align 8, !tbaa !4
  %6 = tail call ptr @l_Lean_Name_mkStr5(ptr noundef %1, ptr noundef %2, ptr noundef %3, ptr noundef %4, ptr noundef %5) #4
  ret ptr %6
}